(dp0
V
p1
I68
sVRg
p2
I76
sVryv
p3
I88
sVtg
p4
I53
sVdl
p5
I67
sVpbei
p6
I56
sVdg
p7
I66
sVulian
p8
I84
sVudeng
p9
I19
sVd
p10
I12
sVqt
p11
I43
sVqv
p12
I39
sVh
p13
I73
sVp
p14
I7
sVpba
p15
I74
sVt
p16
I21
sVx
p17
I20
sVrr
p18
I42
sVry
p19
I92
sVrz
p20
I29
sVn_newword
p21
I87
sVrzt
p22
I93
sVuzhe
p23
I71
sVwn
p24
I4
sVuzhi
p25
I61
sVrzs
p26
I64
sVwf
p27
I25
sVMg
p28
I72
sVwd
p29
I5
sVbl
p30
I77
sVude1
p31
I6
sVude2
p32
I63
sVude3
p33
I79
sVwj
p34
I9
sVww
p35
I95
sVwt
p36
I89
sVws
p37
I82
sVkey
p38
I94
sVwp
p39
I30
sVc
p40
I34
sVk
p41
I38
sVo
p42
I75
sVs
p43
I33
sVw
p44
I41
sVvshi
p45
I26
sVcc
p46
I8
sVvyou
p47
I45
sVnsf
p48
I44
sVnr2
p49
I60
sVnr1
p50
I55
sVvf
p51
I52
sVn_new
p52
I90
sVnrj
p53
I83
sVnrf
p54
I59
sVb
p55
I13
sVf
p56
I17
sVuls
p57
I80
sVn
p58
I1
sVrzv
p59
I49
sVr
p60
I48
sVmq
p61
I57
sVv
p62
I3
sVz
p63
I65
sVule
p64
I31
sVvd
p65
I35
sVad
p66
I32
sVag
p67
I36
sVvg
p68
I28
sVvi
p69
I14
sVvl
p70
I62
sVal
p71
I78
sVvn
p72
I2
sVan
p73
I37
sVwky
p74
I23
sVwkz
p75
I22
sVvx
p76
I51
sVnl
p77
I46
sVng
p78
I16
sVnz
p79
I40
sVusuo
p80
I47
sVnr
p81
I54
sVns
p82
I18
sVnt
p83
I50
sVrys
p84
I91
sVuyy
p85
I81
sVa
p86
I11
sVe
p87
I86
sVurl
p88
I58
sVm
p89
I10
sVwyz
p90
I24
sVwyy
p91
I27
sVq
p92
I15
sVu
p93
I70
sVy
p94
I85
sVuguo
p95
I69
s.